; ModuleID = '46/2772.c'
source_filename = "46/2772.c"
target datalayout = "e-m:e-p270:32:32-p271:32:32-p272:64:64-i64:64-f80:128-n8:16:32:64-S128"
target triple = "x86_64-pc-linux-gnu"

@.str = private unnamed_addr constant [5 x i8] c"%d%d\00", align 1
@.str.1 = private unnamed_addr constant [3 x i8] c"%d\00", align 1
@a = common dso_local global [10000 x [10000 x i32]] zeroinitializer, align 16
@.str.2 = private unnamed_addr constant [4 x i8] c"%d\0A\00", align 1

; Function Attrs: noinline nounwind uwtable
define dso_local i32 @main() #0 {
  %1 = alloca i32, align 4
  %2 = alloca i32, align 4
  %3 = alloca i32, align 4
  %4 = alloca i32, align 4
  %5 = alloca i32, align 4
  %6 = alloca i32, align 4
  %7 = alloca i32, align 4
  %8 = alloca i32, align 4
  %9 = alloca i32, align 4
  store i32 0, i32* %1, align 4
  store i32 0, i32* %6, align 4
  store i32 0, i32* %9, align 4
  %10 = call i32 (i8*, ...) @__isoc99_scanf(i8* getelementptr inbounds ([5 x i8], [5 x i8]* @.str, i64 0, i64 0), i32* %7, i32* %8)
  store i32 0, i32* %4, align 4
  br label %11

11:                                               ; preds = %32, %0
  %12 = load i32, i32* %4, align 4
  %13 = load i32, i32* %7, align 4
  %14 = icmp slt i32 %12, %13
  br i1 %14, label %15, label %35

15:                                               ; preds = %11
  store i32 0, i32* %5, align 4
  br label %16

16:                                               ; preds = %28, %15
  %17 = load i32, i32* %5, align 4
  %18 = load i32, i32* %8, align 4
  %19 = icmp slt i32 %17, %18
  br i1 %19, label %20, label %31

20:                                               ; preds = %16
  %21 = load i32, i32* %4, align 4
  %22 = sext i32 %21 to i64
  %23 = getelementptr inbounds [10000 x [10000 x i32]], [10000 x [10000 x i32]]* @a, i64 0, i64 %22
  %24 = load i32, i32* %5, align 4
  %25 = sext i32 %24 to i64
  %26 = getelementptr inbounds [10000 x i32], [10000 x i32]* %23, i64 0, i64 %25
  %27 = call i32 (i8*, ...) @__isoc99_scanf(i8* getelementptr inbounds ([3 x i8], [3 x i8]* @.str.1, i64 0, i64 0), i32* %26)
  br label %28

28:                                               ; preds = %20
  %29 = load i32, i32* %5, align 4
  %30 = add nsw i32 %29, 1
  store i32 %30, i32* %5, align 4
  br label %16

31:                                               ; preds = %16
  br label %32

32:                                               ; preds = %31
  %33 = load i32, i32* %4, align 4
  %34 = add nsw i32 %33, 1
  store i32 %34, i32* %4, align 4
  br label %11

35:                                               ; preds = %11
  %36 = load i32, i32* %7, align 4
  store i32 %36, i32* %2, align 4
  %37 = load i32, i32* %8, align 4
  store i32 %37, i32* %3, align 4
  br label %38

38:                                               ; preds = %170, %35
  %39 = load i32, i32* %2, align 4
  %40 = icmp sgt i32 %39, 0
  br i1 %40, label %41, label %44

41:                                               ; preds = %38
  %42 = load i32, i32* %3, align 4
  %43 = icmp sgt i32 %42, 0
  br label %44

44:                                               ; preds = %41, %38
  %45 = phi i1 [ false, %38 ], [ %43, %41 ]
  br i1 %45, label %46, label %175

46:                                               ; preds = %44
  %47 = load i32, i32* %9, align 4
  %48 = load i32, i32* %7, align 4
  %49 = load i32, i32* %8, align 4
  %50 = mul nsw i32 %48, %49
  %51 = icmp ne i32 %47, %50
  br i1 %51, label %52, label %73

52:                                               ; preds = %46
  %53 = load i32, i32* %6, align 4
  store i32 %53, i32* %5, align 4
  br label %54

54:                                               ; preds = %69, %52
  %55 = load i32, i32* %5, align 4
  %56 = load i32, i32* %3, align 4
  %57 = icmp slt i32 %55, %56
  br i1 %57, label %58, label %72

58:                                               ; preds = %54
  %59 = load i32, i32* %6, align 4
  %60 = sext i32 %59 to i64
  %61 = getelementptr inbounds [10000 x [10000 x i32]], [10000 x [10000 x i32]]* @a, i64 0, i64 %60
  %62 = load i32, i32* %5, align 4
  %63 = sext i32 %62 to i64
  %64 = getelementptr inbounds [10000 x i32], [10000 x i32]* %61, i64 0, i64 %63
  %65 = load i32, i32* %64, align 4
  %66 = call i32 (i8*, ...) @printf(i8* getelementptr inbounds ([4 x i8], [4 x i8]* @.str.2, i64 0, i64 0), i32 %65)
  %67 = load i32, i32* %9, align 4
  %68 = add nsw i32 %67, 1
  store i32 %68, i32* %9, align 4
  br label %69

69:                                               ; preds = %58
  %70 = load i32, i32* %5, align 4
  %71 = add nsw i32 %70, 1
  store i32 %71, i32* %5, align 4
  br label %54

72:                                               ; preds = %54
  br label %74

73:                                               ; preds = %46
  br label %175

74:                                               ; preds = %72
  %75 = load i32, i32* %9, align 4
  %76 = load i32, i32* %7, align 4
  %77 = load i32, i32* %8, align 4
  %78 = mul nsw i32 %76, %77
  %79 = icmp ne i32 %75, %78
  br i1 %79, label %80, label %104

80:                                               ; preds = %74
  %81 = load i32, i32* %6, align 4
  store i32 %81, i32* %4, align 4
  br label %82

82:                                               ; preds = %100, %80
  %83 = load i32, i32* %4, align 4
  %84 = load i32, i32* %2, align 4
  %85 = sub nsw i32 %84, 1
  %86 = icmp slt i32 %83, %85
  br i1 %86, label %87, label %103

87:                                               ; preds = %82
  %88 = load i32, i32* %4, align 4
  %89 = add nsw i32 %88, 1
  %90 = sext i32 %89 to i64
  %91 = getelementptr inbounds [10000 x [10000 x i32]], [10000 x [10000 x i32]]* @a, i64 0, i64 %90
  %92 = load i32, i32* %3, align 4
  %93 = sub nsw i32 %92, 1
  %94 = sext i32 %93 to i64
  %95 = getelementptr inbounds [10000 x i32], [10000 x i32]* %91, i64 0, i64 %94
  %96 = load i32, i32* %95, align 4
  %97 = call i32 (i8*, ...) @printf(i8* getelementptr inbounds ([4 x i8], [4 x i8]* @.str.2, i64 0, i64 0), i32 %96)
  %98 = load i32, i32* %9, align 4
  %99 = add nsw i32 %98, 1
  store i32 %99, i32* %9, align 4
  br label %100

100:                                              ; preds = %87
  %101 = load i32, i32* %4, align 4
  %102 = add nsw i32 %101, 1
  store i32 %102, i32* %4, align 4
  br label %82

103:                                              ; preds = %82
  br label %105

104:                                              ; preds = %74
  br label %175

105:                                              ; preds = %103
  %106 = load i32, i32* %9, align 4
  %107 = load i32, i32* %7, align 4
  %108 = load i32, i32* %8, align 4
  %109 = mul nsw i32 %107, %108
  %110 = icmp ne i32 %106, %109
  br i1 %110, label %111, label %135

111:                                              ; preds = %105
  %112 = load i32, i32* %3, align 4
  %113 = sub nsw i32 %112, 1
  store i32 %113, i32* %5, align 4
  br label %114

114:                                              ; preds = %131, %111
  %115 = load i32, i32* %5, align 4
  %116 = load i32, i32* %6, align 4
  %117 = icmp sgt i32 %115, %116
  br i1 %117, label %118, label %134

118:                                              ; preds = %114
  %119 = load i32, i32* %2, align 4
  %120 = sub nsw i32 %119, 1
  %121 = sext i32 %120 to i64
  %122 = getelementptr inbounds [10000 x [10000 x i32]], [10000 x [10000 x i32]]* @a, i64 0, i64 %121
  %123 = load i32, i32* %5, align 4
  %124 = sub nsw i32 %123, 1
  %125 = sext i32 %124 to i64
  %126 = getelementptr inbounds [10000 x i32], [10000 x i32]* %122, i64 0, i64 %125
  %127 = load i32, i32* %126, align 4
  %128 = call i32 (i8*, ...) @printf(i8* getelementptr inbounds ([4 x i8], [4 x i8]* @.str.2, i64 0, i64 0), i32 %127)
  %129 = load i32, i32* %9, align 4
  %130 = add nsw i32 %129, 1
  store i32 %130, i32* %9, align 4
  br label %131

131:                                              ; preds = %118
  %132 = load i32, i32* %5, align 4
  %133 = add nsw i32 %132, -1
  store i32 %133, i32* %5, align 4
  br label %114

134:                                              ; preds = %114
  br label %136

135:                                              ; preds = %105
  br label %175

136:                                              ; preds = %134
  %137 = load i32, i32* %9, align 4
  %138 = load i32, i32* %7, align 4
  %139 = load i32, i32* %8, align 4
  %140 = mul nsw i32 %138, %139
  %141 = icmp ne i32 %137, %140
  br i1 %141, label %142, label %166

142:                                              ; preds = %136
  %143 = load i32, i32* %2, align 4
  %144 = sub nsw i32 %143, 1
  store i32 %144, i32* %4, align 4
  br label %145

145:                                              ; preds = %162, %142
  %146 = load i32, i32* %4, align 4
  %147 = load i32, i32* %6, align 4
  %148 = add nsw i32 %147, 1
  %149 = icmp sgt i32 %146, %148
  br i1 %149, label %150, label %165

150:                                              ; preds = %145
  %151 = load i32, i32* %4, align 4
  %152 = sub nsw i32 %151, 1
  %153 = sext i32 %152 to i64
  %154 = getelementptr inbounds [10000 x [10000 x i32]], [10000 x [10000 x i32]]* @a, i64 0, i64 %153
  %155 = load i32, i32* %6, align 4
  %156 = sext i32 %155 to i64
  %157 = getelementptr inbounds [10000 x i32], [10000 x i32]* %154, i64 0, i64 %156
  %158 = load i32, i32* %157, align 4
  %159 = call i32 (i8*, ...) @printf(i8* getelementptr inbounds ([4 x i8], [4 x i8]* @.str.2, i64 0, i64 0), i32 %158)
  %160 = load i32, i32* %9, align 4
  %161 = add nsw i32 %160, 1
  store i32 %161, i32* %9, align 4
  br label %162

162:                                              ; preds = %150
  %163 = load i32, i32* %4, align 4
  %164 = add nsw i32 %163, -1
  store i32 %164, i32* %4, align 4
  br label %145

165:                                              ; preds = %145
  br label %167

166:                                              ; preds = %136
  br label %175

167:                                              ; preds = %165
  %168 = load i32, i32* %6, align 4
  %169 = add nsw i32 %168, 1
  store i32 %169, i32* %6, align 4
  br label %170

170:                                              ; preds = %167
  %171 = load i32, i32* %2, align 4
  %172 = sub nsw i32 %171, 1
  store i32 %172, i32* %2, align 4
  %173 = load i32, i32* %3, align 4
  %174 = sub nsw i32 %173, 1
  store i32 %174, i32* %3, align 4
  br label %38

175:                                              ; preds = %166, %135, %104, %73, %44
  ret i32 0
}

declare dso_local i32 @__isoc99_scanf(i8*, ...) #1

declare dso_local i32 @printf(i8*, ...) #1


!llvm.module.flags = !{!0}
!llvm.ident = !{!1}

!0 = !{i32 1, !"wchar_size", i32 4}
!1 = !{!"clang version 10.0.0-4ubuntu1 "}
